target datalayout = "e-m:e-p270:32:32-p271:32:32-p272:64:64-i64:64-i128:128-f80:128-n8:16:32:64-S128"
target triple = "x86_64-unknown-linux-gnu"

%struct.MigrationAtomicStats = type { %struct.Stat64, %struct.Stat64, %struct.Stat64, %struct.Stat64, %struct.Stat64, %struct.Stat64, %struct.Stat64, %struct.Stat64, %struct.Stat64, %struct.Stat64, %struct.Stat64, %struct.Stat64, %struct.Stat64, %struct.Stat64, %struct.Stat64 }
%struct.Stat64 = type { i64 }

@mig_stats = external global %struct.MigrationAtomicStats, align 8

; Function Attrs: nounwind sspstrong uwtable
define internal void @stat64_add(ptr noundef %s, i64 noundef %value) #0 {
entry:
  %s.addr = alloca ptr, align 8
  %value.addr = alloca i64, align 8
  %.atomictmp = alloca i64, align 8
  %atomic-temp = alloca i64, align 8
  store ptr %s, ptr %s.addr, align 8
  store i64 %value, ptr %value.addr, align 8
  %0 = load ptr, ptr %s.addr, align 8
  %value1 = getelementptr inbounds %struct.Stat64, ptr %0, i32 0, i32 0
  %1 = load i64, ptr %value.addr, align 8
  store i64 %1, ptr %.atomictmp, align 8
  %2 = load i64, ptr %.atomictmp, align 8
  %3 = atomicrmw add ptr %value1, i64 %2 seq_cst, align 8
  store i64 %3, ptr %atomic-temp, align 8
  ret void
}

; Function Attrs: nounwind sspstrong uwtable
define dso_local void @ram_transferred_add(i64 noundef %bytes) #0 {
entry:
  %bytes.addr = alloca i64, align 8
  store i64 %bytes, ptr %bytes.addr, align 8
  %call = call zeroext i1 @runstate_is_running()
  br i1 %call, label %if.then, label %if.else

if.then:                                          ; preds = %entry
  %0 = load i64, ptr %bytes.addr, align 8
  %1 = getelementptr inbounds %struct.MigrationAtomicStats, ptr @mig_stats, i32 0, i32 9
  call void @stat64_add(ptr noundef %1, i64 noundef %0)
  br label %if.end4

if.else:                                          ; preds = %entry
  %call1 = call zeroext i1 @migration_in_postcopy()
  br i1 %call1, label %if.then2, label %if.else3

if.then2:                                         ; preds = %if.else
  %2 = load i64, ptr %bytes.addr, align 8
  %3 = getelementptr inbounds %struct.MigrationAtomicStats, ptr @mig_stats, i32 0, i32 7
  call void @stat64_add(ptr noundef %3, i64 noundef %2)
  br label %if.end

if.else3:                                         ; preds = %if.else
  %4 = load i64, ptr %bytes.addr, align 8
  %5 = getelementptr inbounds %struct.MigrationAtomicStats, ptr @mig_stats, i32 0, i32 4
  call void @stat64_add(ptr noundef %5, i64 noundef %4)
  br label %if.end

if.end:                                           ; preds = %if.else3, %if.then2
  br label %if.end4

if.end4:                                          ; preds = %if.end, %if.then
  ret void
}