; Function Attrs: nounwind sspstrong uwtable
define dso_local void @ram_transferred_add(i64 noundef %bytes) local_unnamed_addr #0 {
entry:
  %call = tail call zeroext i1 @runstate_is_running() #18
  br i1 %call, label %if.end4, label %if.else

if.else:                                          ; preds = %entry
  %call1 = tail call zeroext i1 @migration_in_postcopy() #18
  %. = select i1 %call1, ptr getelementptr inbounds nuw (i8, ptr @mig_stats, i64 56), ptr getelementptr inbounds nuw (i8, ptr @mig_stats, i64 32)
  br label %if.end4

if.end4:                                          ; preds = %if.else, %entry
  %.sink = phi ptr [ getelementptr inbounds nuw (i8, ptr @mig_stats, i64 72), %entry ], [ %., %if.else ]
  %0 = atomicrmw add ptr %.sink, i64 %bytes seq_cst, align 8
  ret void
}